target datalayout = "e-m:e-p270:32:32-p271:32:32-p272:64:64-i64:64-i128:128-f80:128-n8:16:32:64-S128"
target triple = "x86_64-pc-linux-gnu"

; Function Attrs: null_pointer_is_valid sspstrong uwtable
define internal zeroext i1 @filter_address_match(ptr noundef %0, ptr noundef %1, i32 noundef %2) #0 {
  %4 = alloca i1, align 1
  %5 = alloca ptr, align 8
  %6 = alloca ptr, align 8
  %7 = alloca i32, align 4
  %8 = alloca i32, align 4
  %9 = alloca [33 x i8], align 16
  %10 = alloca [33 x i8], align 16
  %11 = alloca i32, align 4
  %12 = alloca i32, align 4
  %13 = alloca i32, align 4
  store ptr %0, ptr %5, align 8
  store ptr %1, ptr %6, align 8
  store i32 %2, ptr %7, align 4
  call void @llvm.lifetime.start.p0(i64 4, ptr %8) #17
  call void @llvm.lifetime.start.p0(i64 33, ptr %9) #17
  call void @llvm.lifetime.start.p0(i64 33, ptr %10) #17
  call void @llvm.lifetime.start.p0(i64 4, ptr %11) #17
  call void @llvm.lifetime.start.p0(i64 4, ptr %12) #17
  %14 = load i32, ptr %7, align 4
  switch i32 %14, label %41 [
    i32 3, label %15
    i32 1, label %16
    i32 2, label %27
    i32 -1, label %40
  ]

15:                                               ; preds = %3
  store i1 true, ptr %4, align 1
  store i32 1, ptr %13, align 4
  br label %106

16:                                               ; preds = %3
  %17 = getelementptr inbounds [33 x i8], ptr %9, i64 0, i64 0
  %18 = load ptr, ptr %5, align 8
  %19 = call zeroext i1 @get_full_ipv4_addr(ptr noundef %17, ptr noundef %18)
  br i1 %19, label %21, label %20

20:                                               ; preds = %16
  store i1 false, ptr %4, align 1
  store i32 1, ptr %13, align 4
  br label %106

21:                                               ; preds = %16
  %22 = getelementptr inbounds [33 x i8], ptr %10, i64 0, i64 0
  %23 = load ptr, ptr %6, align 8
  %24 = call zeroext i1 @get_full_ipv4_addr(ptr noundef %22, ptr noundef %23)
  br i1 %24, label %26, label %25

25:                                               ; preds = %21
  store i1 false, ptr %4, align 1
  store i32 1, ptr %13, align 4
  br label %106

26:                                               ; preds = %21
  br label %42

27:                                               ; preds = %3
  %28 = getelementptr inbounds [33 x i8], ptr %9, i64 0, i64 0
  %29 = load ptr, ptr %5, align 8
  %30 = call i32 @get_full_ipv6_addr(ptr noundef %28, ptr noundef %29)
  %31 = icmp ne i32 %30, 0
  br i1 %31, label %32, label %33

32:                                               ; preds = %27
  store i1 false, ptr %4, align 1
  store i32 1, ptr %13, align 4
  br label %106

33:                                               ; preds = %27
  %34 = getelementptr inbounds [33 x i8], ptr %10, i64 0, i64 0
  %35 = load ptr, ptr %6, align 8
  %36 = call i32 @get_full_ipv6_addr(ptr noundef %34, ptr noundef %35)
  %37 = icmp ne i32 %36, 0
  br i1 %37, label %38, label %39

38:                                               ; preds = %33
  store i1 false, ptr %4, align 1
  store i32 1, ptr %13, align 4
  br label %106

39:                                               ; preds = %33
  br label %42

40:                                               ; preds = %3
  br label %41

41:                                               ; preds = %3, %40
  store i1 false, ptr %4, align 1
  store i32 1, ptr %13, align 4
  br label %106

42:                                               ; preds = %39, %26
  %43 = getelementptr inbounds [33 x i8], ptr %9, i64 0, i64 0
  %44 = call i64 @strlen(ptr noundef %43) #21
  %45 = trunc i64 %44 to i32
  store i32 %45, ptr %11, align 4
  %46 = getelementptr inbounds [33 x i8], ptr %10, i64 0, i64 0
  %47 = call i64 @strlen(ptr noundef %46) #21
  %48 = trunc i64 %47 to i32
  store i32 %48, ptr %12, align 4
  %49 = load i32, ptr %12, align 4
  %50 = icmp eq i32 %49, 1
  br i1 %50, label %51, label %58

51:                                               ; preds = %42
  %52 = load ptr, ptr %6, align 8
  %53 = getelementptr i8, ptr %52, i64 0
  %54 = load i8, ptr %53, align 1
  %55 = sext i8 %54 to i32
  %56 = icmp eq i32 %55, 42
  br i1 %56, label %57, label %58

57:                                               ; preds = %51
  store i1 true, ptr %4, align 1
  store i32 1, ptr %13, align 4
  br label %106

58:                                               ; preds = %51, %42
  %59 = load i32, ptr %11, align 4
  %60 = load i32, ptr %12, align 4
  %61 = icmp ne i32 %59, %60
  br i1 %61, label %62, label %63

62:                                               ; preds = %58
  store i1 false, ptr %4, align 1
  store i32 1, ptr %13, align 4
  br label %106

63:                                               ; preds = %58
  %64 = load i32, ptr %7, align 4
  %65 = icmp eq i32 %64, 2
  br i1 %65, label %66, label %69

66:                                               ; preds = %63
  %67 = load i32, ptr %12, align 4
  %68 = icmp eq i32 %67, 32
  br i1 %68, label %75, label %69

69:                                               ; preds = %66, %63
  %70 = load i32, ptr %7, align 4
  %71 = icmp eq i32 %70, 1
  br i1 %71, label %72, label %105

72:                                               ; preds = %69
  %73 = load i32, ptr %12, align 4
  %74 = icmp eq i32 %73, 8
  br i1 %74, label %75, label %105

75:                                               ; preds = %72, %66
  store i32 0, ptr %8, align 4
  br label %76

76:                                               ; preds = %101, %75
  %77 = load i32, ptr %8, align 4
  %78 = load i32, ptr %11, align 4
  %79 = icmp ult i32 %77, %78
  br i1 %79, label %80, label %104

80:                                               ; preds = %76
  %81 = load i32, ptr %8, align 4
  %82 = zext i32 %81 to i64
  %83 = getelementptr [33 x i8], ptr %10, i64 0, i64 %82
  %84 = load i8, ptr %83, align 1
  %85 = sext i8 %84 to i32
  %86 = icmp ne i32 %85, 42
  br i1 %86, label %87, label %100

87:                                               ; preds = %80
  %88 = load i32, ptr %8, align 4
  %89 = zext i32 %88 to i64
  %90 = getelementptr [33 x i8], ptr %10, i64 0, i64 %89
  %91 = load i8, ptr %90, align 1
  %92 = sext i8 %91 to i32
  %93 = load i32, ptr %8, align 4
  %94 = zext i32 %93 to i64
  %95 = getelementptr [33 x i8], ptr %9, i64 0, i64 %94
  %96 = load i8, ptr %95, align 1
  %97 = sext i8 %96 to i32
  %98 = icmp ne i32 %92, %97
  br i1 %98, label %99, label %100

99:                                               ; preds = %87
  store i1 false, ptr %4, align 1
  store i32 1, ptr %13, align 4
  br label %106

100:                                              ; preds = %87, %80
  br label %101

101:                                              ; preds = %100
  %102 = load i32, ptr %8, align 4
  %103 = add i32 %102, 1
  store i32 %103, ptr %8, align 4
  br label %76, !llvm.loop !24

104:                                              ; preds = %76
  store i1 true, ptr %4, align 1
  store i32 1, ptr %13, align 4
  br label %106

105:                                              ; preds = %72, %69
  store i1 false, ptr %4, align 1
  store i32 1, ptr %13, align 4
  br label %106

106:                                              ; preds = %105, %104, %99, %62, %57, %41, %38, %32, %25, %20, %15
  call void @llvm.lifetime.end.p0(i64 4, ptr %12) #17
  call void @llvm.lifetime.end.p0(i64 4, ptr %11) #17
  call void @llvm.lifetime.end.p0(i64 33, ptr %10) #17
  call void @llvm.lifetime.end.p0(i64 33, ptr %9) #17
  call void @llvm.lifetime.end.p0(i64 4, ptr %8) #17
  %107 = load i1, ptr %4, align 1
  ret i1 %107
}