; Function Attrs: null_pointer_is_valid sspstrong uwtable
define internal fastcc noundef zeroext i1 @filter_address_match(ptr noundef %0, ptr noundef %1, i32 noundef range(i32 -1, 3) %2) unnamed_addr #0 {
  %4 = alloca [33 x i8], align 16
  %5 = alloca [33 x i8], align 16
  call void @llvm.lifetime.start.p0(i64 33, ptr nonnull %4) #20
  call void @llvm.lifetime.start.p0(i64 33, ptr nonnull %5) #20
  switch i32 %2, label %.loopexit [
    i32 2, label %10
    i32 1, label %6
  ]

6:                                                ; preds = %3
  %7 = call fastcc zeroext i1 @get_full_ipv4_addr(ptr noundef nonnull %4, ptr noundef %0)
  br i1 %7, label %8, label %.loopexit

8:                                                ; preds = %6
  %9 = call fastcc zeroext i1 @get_full_ipv4_addr(ptr noundef nonnull %5, ptr noundef %1)
  br i1 %9, label %14, label %.loopexit

10:                                               ; preds = %3
  %11 = call fastcc i32 @get_full_ipv6_addr(ptr noundef nonnull %4, ptr noundef %0)
  %.not = icmp eq i32 %11, 0
  br i1 %.not, label %12, label %.loopexit

12:                                               ; preds = %10
  %13 = call fastcc i32 @get_full_ipv6_addr(ptr noundef nonnull %5, ptr noundef %1)
  %.not26 = icmp eq i32 %13, 0
  br i1 %.not26, label %14, label %.loopexit

14:                                               ; preds = %12, %8
  %15 = call i64 @strlen(ptr noundef nonnull dereferenceable(1) %4) #22
  %16 = trunc i64 %15 to i32
  %17 = call i64 @strlen(ptr noundef nonnull dereferenceable(1) %5) #22
  %18 = trunc i64 %17 to i32
  %19 = icmp eq i32 %18, 1
  br i1 %19, label %20, label %23

20:                                               ; preds = %14
  %21 = load i8, ptr %1, align 1
  %22 = icmp eq i8 %21, 42
  br i1 %22, label %.loopexit, label %23

23:                                               ; preds = %20, %14
  %.not27 = icmp eq i32 %16, %18
  br i1 %.not27, label %24, label %.loopexit

24:                                               ; preds = %23
  %25 = icmp eq i32 %2, 2
  %26 = icmp eq i32 %16, 32
  %or.cond = and i1 %25, %26
  br i1 %or.cond, label %.lr.ph.preheader, label %27

27:                                               ; preds = %24
  %28 = icmp eq i32 %2, 1
  %29 = icmp eq i32 %16, 8
  %or.cond3 = and i1 %28, %29
  br i1 %or.cond3, label %.lr.ph.preheader, label %.loopexit

.lr.ph.preheader:                                 ; preds = %24, %27
  %wide.trip.count = and i64 %15, 4294967295
  br label %.lr.ph

.lr.ph:                                           ; preds = %.lr.ph.preheader, %35
  %indvars.iv = phi i64 [ 0, %.lr.ph.preheader ], [ %indvars.iv.next, %35 ]
  %30 = getelementptr [33 x i8], ptr %5, i64 0, i64 %indvars.iv
  %31 = load i8, ptr %30, align 1
  %.not28 = icmp eq i8 %31, 42
  br i1 %.not28, label %35, label %32

32:                                               ; preds = %.lr.ph
  %33 = getelementptr [33 x i8], ptr %4, i64 0, i64 %indvars.iv
  %34 = load i8, ptr %33, align 1
  %.not29 = icmp eq i8 %31, %34
  br i1 %.not29, label %35, label %.loopexit

35:                                               ; preds = %.lr.ph, %32
  %indvars.iv.next = add nuw nsw i64 %indvars.iv, 1
  %exitcond.not = icmp eq i64 %indvars.iv.next, %wide.trip.count
  br i1 %exitcond.not, label %.loopexit, label %.lr.ph, !llvm.loop !45

.loopexit:                                        ; preds = %32, %35, %27, %23, %20, %3, %12, %10, %8, %6
  %.0 = phi i1 [ false, %6 ], [ false, %8 ], [ false, %10 ], [ false, %12 ], [ false, %3 ], [ true, %20 ], [ false, %23 ], [ false, %27 ], [ false, %32 ], [ true, %35 ]
  call void @llvm.lifetime.end.p0(i64 33, ptr nonnull %5) #20
  call void @llvm.lifetime.end.p0(i64 33, ptr nonnull %4) #20
  ret i1 %.0
}